; Function Attrs: mustprogress nofree norecurse nosync nounwind willreturn memory(read, inaccessiblemem: none) uwtable
define noundef i32 @_ZNK10OpenSubdiv6v3_6_03Far10PatchTable24GetNumLocalPointsVaryingEv(ptr nocapture noundef nonnull readonly align 8 dereferenceable(273) %0) local_unnamed_addr #6 align 2 {
  %2 = getelementptr inbounds nuw i8, ptr %0, i64 136
  %3 = load ptr, ptr %2, align 8
  %.not1 = icmp eq ptr %3, null
  br i1 %.not1, label %14, label %4

4:                                                ; preds = %1
  %5 = getelementptr inbounds nuw i8, ptr %3, i64 16
  %6 = getelementptr inbounds i8, ptr %3, i64 24
  %7 = load ptr, ptr %6, align 8
  %8 = load ptr, ptr %5, align 8
  %9 = ptrtoint ptr %7 to i64
  %10 = ptrtoint ptr %8 to i64
  %11 = sub i64 %9, %10
  %12 = lshr exact i64 %11, 2
  %13 = trunc i64 %12 to i32
  br label %14

14:                                               ; preds = %4, %1
  %.0 = phi i32 [ 0, %1 ], [ %13, %4 ]
  ret i32 %.0
}